-----BEGIN CERTIFICATE-----
MIIGWjCCBEKgAwIBAgIJAPWre29kipOcMA0GCSqGSIb3DQEBBQUAMHsxCzAJBgNV
BAYTAlVTMQswCQYDVQQIEwJNRDEWMBQGA1UEChMNV2lkZ2V0cywgSW5jLjELMAkG
A1UECxMCSVQxGTAXBgNVBAMTEGNhMTAuZGVlenRlay5jb20xHzAdBgkqhkiG9w0B
CQEWEGNhMTBAZGVlenRlay5jb20wHhcNMTMwODEyMTQzNzMxWhcNMTgwODExMTQz
NzMxWjB7MQswCQYDVQQGEwJVUzELMAkGA1UECBMCTUQxFjAUBgNVBAoTDVdpZGdl
dHMsIEluYy4xCzAJBgNVBAsTAklUMRkwFwYDVQQDExBjYTEwLmRlZXp0ZWsuY29t
MR8wHQYJKoZIhvcNAQkBFhBjYTEwQGRlZXp0ZWsuY29tMIICIjANBgkqhkiG9w0B
AQEFAAOCAg8AMIICCgKCAgEAoSO/zxF88S2905HwnJDITZDAEEN/kAB3TK9MYBJr
Kv85Lu+of3SMEPksR5qFB6Ig2t0M8I4dQFU+/q0IwK5fqhBHlQFx+xwrqvO4sNqu
z2CcR+R1YGm+rFtYCY//8KWMaPnnZ2Kb0oa3c/zptkQrFqcsbEP6j+Ap3dNG/+D7
Wzovn2BzMrKy1z1OAZDA0mXS1xx/UPbeAyHq2NHz4wvEM4cZ5QnOjsPeTqo/Nw+O
1BfXxGTnDYb/8PnkhsZ1WTxl+GLWA8+I7nwvoKdaqdhLN1uaTm3SJU1IXWWvaBfO
MojArgANCON74hiQ5KZ7Wsp8XLugTFTEaHBhn1Z5mGt/YWBjjV2QtIsp60V5zNW2
7I+N6WnJ3rMMPf/jc+tY3sjxAn1Ch4YM+hKjxB3mUWW0c+9HE+Rlt28iJjOr06Bu
/V7R0Y8h+LcPRPMaAdYJ5cOY0l3SAUJz5esJx5IIJ3YejiXosST6P/i59L41eXd8
p4d5k3n2VGVJTJigdVGkbNkcJapv4YPMPHdsWcNTnV1O8q7dvae61Oi8jMRPOrHH
3h8dg5ZPbOmfd8Mwlm2ZN+zrcty3GnybH8OnQcyNStiOsqOa83rsww9jFR5VjIAC
VmWQZdz/Yr1ONGUL7rEZIjH0v5TdXYTdo0eJDCLaIeYjFEL4ir+AzvW5PorVi+Lo
+AcCAwEAAaOB4DCB3TAdBgNVHQ4EFgQULueYtR+kldpHuf4lCfjYerXs4RYwga0G
A1UdIwSBpTCBooAULueYtR+kldpHuf4lCfjYerXs4Rahf6R9MHsxCzAJBgNVBAYT
AlVTMQswCQYDVQQIEwJNRDEWMBQGA1UEChMNV2lkZ2V0cywgSW5jLjELMAkGA1UE
CxMCSVQxGTAXBgNVBAMTEGNhMTAuZGVlenRlay5jb20xHzAdBgkqhkiG9w0BCQEW
EGNhMTBAZGVlenRlay5jb22CCQD1q3tvZIqTnDAMBgNVHRMEBTADAQH/MA0GCSqG
SIb3DQEBBQUAA4ICAQAt+7z9E7bQAnQSh8AES0H9yF+hG1EcAT44gCHYB+ABlnVh
jTntNozSqMBXmg2SWev1R6H2cohA/Q1QBNZIoiOPVmOilTvUoiWmqhoBmm0C9ORp
kuyOQZtyNN1nLbOV4B81thC9dS990bAODj1W2YxMmXo0kdZaCbyKKLaPzICQBuBt
Y1MOK+aSFpuoD3lm019Xz7p+S6QLdObo/VrbJEUkgxHx/REf8rg1MvEQePHUoF3M
yjlyiaNYZ4vcnujEmuOooUSTrnx05QSjdG8RILYD7Gqmxevd1Aie40EPHKYIxB63
h5/spUjXRyiZPKBOYraTqLIajEy36YgmubfeK56JDQIZMyUJGpvDdWvfjPrKXWWE
q4dKzJSvh+xHdUH77KHzaS3fEAoNJrNotMEgBZ7HXx5IWOPkw1HM6c/kMXZQGG0y
D3KqxD7eX8ecbLuWd3mWlBRrA8iOPMqwmMLXUn3f0t1ovb/xq1qTJx4cdJBG8LPA
aik+7guhDI7be9yFphK9A/TlPsDsV9fIeOSMB2FF9beYLPFi7MvZDeoRCanW8ZQs
AQzo9rJ7pu+wO7xDHddreYX4VEPhUnEGWfKXlGAcocDJJHkwQYD/fjkYjkCyisXw
54WZdvRTFa9t12JWQWZjSUUNH2H9VO68EGD4K6tZqJhYaQPESoJ+LUhM1Fxwtw==
-----END CERTIFICATE-----
Certificate:
    Data:
        Version: 3 (0x2)
        Serial Number: 256 (0x100)
        Signature Algorithm: sha1WithRSAEncryption
        Issuer: C=US, ST=MD, O=Widgets, Inc., OU=IT, CN=ca10.deeztek.com/emailAddress=ca10@deeztek.com
        Validity
            Not Before: Aug 12 15:17:45 2013 GMT
            Not After : Aug 11 15:17:45 2018 GMT
        Subject: CN=subca10.deeztek.com/emailAddress=subca10@deeztek.com
        Subject Public Key Info:
            Public Key Algorithm: rsaEncryption
            RSA Public Key: (4096 bit)
                Modulus (4096 bit):
                    00:c3:e8:9b:86:f5:2b:b1:e2:3c:7b:75:2f:2e:26:
                    5c:db:0f:df:6b:dc:8a:d5:ea:02:50:d8:7c:52:99:
                    2c:85:3b:76:4a:95:54:eb:08:4e:92:dc:36:be:2a:
                    86:26:2c:00:b6:03:30:86:dc:17:4c:c2:c8:5f:a7:
                    57:d0:e5:13:59:45:34:a6:4b:9b:4b:9f:12:07:74:
                    ef:40:7e:1f:89:31:de:c0:16:26:89:04:4a:44:15:
                    78:2d:4b:1a:7d:94:3d:4d:17:83:fb:a1:31:c3:71:
                    fb:28:7a:88:59:be:f5:26:33:52:cd:ab:c9:85:11:
                    f0:85:bf:f7:5e:24:b5:1a:8b:14:49:e9:0f:de:18:
                    7a:ea:f5:7d:44:68:01:71:58:12:6a:a9:c8:b2:36:
                    6f:a7:72:5e:e7:da:f8:b1:e7:bc:bb:82:da:b5:ae:
                    18:45:3f:ed:65:e0:86:97:da:18:75:ad:65:3c:8b:
                    9d:ce:e8:de:d1:16:04:02:e3:ca:4b:39:06:30:2f:
                    1a:d6:4d:b9:2b:57:60:94:8b:3b:ee:c6:00:37:7c:
                    14:de:89:b0:70:7e:52:90:0d:14:09:f6:63:d2:bb:
                    34:3e:41:5f:24:b9:4e:5f:a7:de:51:cb:4f:81:98:
                    b9:36:e1:5a:a0:c2:1e:bc:61:10:80:93:95:77:e0:
                    a9:2c:fa:68:df:19:4a:fc:6c:b9:81:08:58:74:1b:
                    3f:62:56:ea:1a:46:9c:d5:0d:cb:a5:58:53:22:f3:
                    b9:fa:27:98:92:e1:34:c8:89:95:0d:41:80:b5:e9:
                    2f:05:5c:6b:b9:93:98:32:88:15:35:57:6a:ee:9a:
                    d7:0b:9a:ee:ca:a2:28:ef:0d:88:24:5b:e3:9b:52:
                    b9:16:55:34:36:49:11:47:55:38:a3:65:6e:1f:6c:
                    ee:b8:de:2b:22:5b:2f:2f:94:56:bd:ba:39:4c:0b:
                    d7:d7:69:cc:84:5a:b1:2f:31:f6:f5:93:3f:a7:6f:
                    af:8f:2f:98:ad:00:03:9e:b1:04:d0:b6:d2:6f:e9:
                    15:cd:7f:3c:91:96:e6:16:fb:70:59:e4:cb:77:1f:
                    dd:44:4e:19:86:6f:1c:03:ff:e3:04:05:be:d7:93:
                    92:1f:91:35:13:05:93:99:d4:ab:d3:6a:c4:59:6d:
                    2c:40:9e:a9:e4:6b:f2:60:da:f2:90:b4:44:46:90:
                    a4:e7:ee:26:d9:26:45:e8:fa:84:72:52:22:14:70:
                    d7:ab:d0:37:4d:82:7e:ed:43:c0:cf:6a:04:7e:80:
                    21:55:69:78:5d:d5:b5:ce:60:8b:77:66:52:9f:bd:
                    ab:81:4f:78:01:0b:91:50:cb:c5:28:82:82:1b:c7:
                    d9:bd:95
                Exponent: 65537 (0x10001)
        X509v3 extensions:
            X509v3 Subject Key Identifier: 
                76:28:AF:3E:2A:F5:6D:BC:68:31:A4:94:7C:BD:8D:5F:34:EA:7D:F0
            X509v3 Authority Key Identifier: 
                keyid:2E:E7:98:B5:1F:A4:95:DA:47:B9:FE:25:09:F8:D8:7A:B5:EC:E1:16
                DirName:/C=US/ST=MD/O=Widgets, Inc./OU=IT/CN=ca10.deeztek.com/emailAddress=ca10@deeztek.com
                serial:F5:AB:7B:6F:64:8A:93:9C

            X509v3 Basic Constraints: 
                CA:TRUE
    Signature Algorithm: sha1WithRSAEncryption
        0a:41:87:fa:ba:f4:f9:c5:a2:73:8b:9f:52:58:ce:7f:46:22:
        a8:24:45:30:68:86:a9:15:58:3f:2b:cd:85:67:ec:11:ca:ad:
        38:48:71:15:a1:e7:16:67:26:ef:92:c3:5a:ba:d7:26:19:00:
        97:55:65:c1:ba:01:05:f7:32:3e:da:d2:7a:e8:8e:42:ed:5b:
        ca:49:de:f9:c9:1c:44:f0:6e:07:38:a6:b3:a9:65:b5:b2:83:
        59:8f:42:2a:00:39:0b:c4:3f:56:3d:ba:b2:e1:d3:f6:1a:0f:
        d4:aa:23:ce:70:98:13:69:5f:b4:f7:93:58:06:47:d9:2e:67:
        a4:83:c9:aa:20:b9:b3:58:24:bd:4c:6d:c7:09:0e:d2:b8:4b:
        5d:e2:8f:90:dc:ad:37:80:24:98:7a:d3:f6:77:a4:bc:08:4c:
        1c:51:3c:a0:1d:a4:93:80:db:ba:67:ef:01:15:1e:04:c4:c3:
        c1:a4:31:de:b7:b7:15:79:da:6a:b3:6b:c1:7b:a1:1e:43:56:
        c2:a4:59:8e:a1:31:8b:c3:7c:c0:e4:10:46:0f:67:0b:be:96:
        6a:39:f6:df:34:d0:c9:d1:ed:82:8e:e1:53:32:a7:ef:47:da:
        9f:cb:a6:ef:ac:d9:18:21:08:31:9f:54:d4:09:2b:bd:fe:88:
        6e:13:af:fe:56:0a:92:88:ff:e7:05:61:9b:bb:13:48:16:94:
        a2:3b:83:09:9c:68:90:c1:f7:df:fd:55:64:a2:6f:fb:51:09:
        df:97:d5:97:8f:7a:ce:3f:45:cf:85:7b:21:a1:a0:4a:69:bf:
        49:c0:9d:2c:f7:ed:e8:51:2c:8b:52:b9:b2:79:60:a8:39:a0:
        cd:33:37:e1:08:91:d3:28:f6:99:98:6b:19:70:ce:91:be:7c:
        9a:d6:1c:26:cf:87:1e:38:53:58:76:7d:37:3b:e7:b0:4c:d1:
        a1:c5:90:5a:0d:c5:cc:a0:8e:7b:ce:d2:1d:f9:d2:fa:a9:fe:
        52:99:3b:00:2a:ba:05:be:12:64:f5:41:6f:1e:be:89:a5:0e:
        4f:53:29:f5:fe:f1:17:b5:e2:51:ba:e5:f9:35:86:c5:b8:a4:
        52:7b:8a:db:ae:ea:95:7e:63:87:92:76:ed:54:3a:a7:18:65:
        3e:2e:41:42:13:ff:a0:2b:e0:89:02:24:f6:90:0c:f4:bd:56:
        a6:e2:da:ae:f5:e9:be:d7:c3:25:ad:49:62:8a:0c:f5:73:1f:
        5d:40:b2:09:5e:4d:c8:c1:06:17:6e:72:66:d4:1d:c3:5a:7e:
        49:11:78:02:ba:9d:7c:4a:50:b8:b4:d2:5c:c3:b2:8b:89:fa:
        98:51:7c:e1:70:0e:e8:88
-----BEGIN CERTIFICATE-----
MIIGGjCCBAKgAwIBAgICAQAwDQYJKoZIhvcNAQEFBQAwezELMAkGA1UEBhMCVVMx
CzAJBgNVBAgTAk1EMRYwFAYDVQQKEw1XaWRnZXRzLCBJbmMuMQswCQYDVQQLEwJJ
VDEZMBcGA1UEAxMQY2ExMC5kZWV6dGVrLmNvbTEfMB0GCSqGSIb3DQEJARYQY2Ex
MEBkZWV6dGVrLmNvbTAeFw0xMzA4MTIxNTE3NDVaFw0xODA4MTExNTE3NDVaMEIx
HDAaBgNVBAMTE3N1YmNhMTAuZGVlenRlay5jb20xIjAgBgkqhkiG9w0BCQEWE3N1
YmNhMTBAZGVlenRlay5jb20wggIiMA0GCSqGSIb3DQEBAQUAA4ICDwAwggIKAoIC
AQDD6JuG9Sux4jx7dS8uJlzbD99r3IrV6gJQ2HxSmSyFO3ZKlVTrCE6S3Da+KoYm
LAC2AzCG3BdMwshfp1fQ5RNZRTSmS5tLnxIHdO9Afh+JMd7AFiaJBEpEFXgtSxp9
lD1NF4P7oTHDcfsoeohZvvUmM1LNq8mFEfCFv/deJLUaixRJ6Q/eGHrq9X1EaAFx
WBJqqciyNm+ncl7n2vix57y7gtq1rhhFP+1l4IaX2hh1rWU8i53O6N7RFgQC48pL
OQYwLxrWTbkrV2CUizvuxgA3fBTeibBwflKQDRQJ9mPSuzQ+QV8kuU5fp95Ry0+B
mLk24Vqgwh68YRCAk5V34Kks+mjfGUr8bLmBCFh0Gz9iVuoaRpzVDculWFMi87n6
J5iS4TTIiZUNQYC16S8FXGu5k5gyiBU1V2rumtcLmu7KoijvDYgkW+ObUrkWVTQ2
SRFHVTijZW4fbO643isiWy8vlFa9ujlMC9fXacyEWrEvMfb1kz+nb6+PL5itAAOe
sQTQttJv6RXNfzyRluYW+3BZ5Mt3H91EThmGbxwD/+MEBb7Xk5IfkTUTBZOZ1KvT
asRZbSxAnqnka/Jg2vKQtERGkKTn7ibZJkXo+oRyUiIUcNer0DdNgn7tQ8DPagR+
gCFVaXhd1bXOYIt3ZlKfvauBT3gBC5FQy8UogoIbx9m9lQIDAQABo4HgMIHdMB0G
A1UdDgQWBBR2KK8+KvVtvGgxpJR8vY1fNOp98DCBrQYDVR0jBIGlMIGigBQu55i1
H6SV2ke5/iUJ+Nh6tezhFqF/pH0wezELMAkGA1UEBhMCVVMxCzAJBgNVBAgTAk1E
MRYwFAYDVQQKEw1XaWRnZXRzLCBJbmMuMQswCQYDVQQLEwJJVDEZMBcGA1UEAxMQ
Y2ExMC5kZWV6dGVrLmNvbTEfMB0GCSqGSIb3DQEJARYQY2ExMEBkZWV6dGVrLmNv
bYIJAPWre29kipOcMAwGA1UdEwQFMAMBAf8wDQYJKoZIhvcNAQEFBQADggIBAApB
h/q69PnFonOLn1JYzn9GIqgkRTBohqkVWD8rzYVn7BHKrThIcRWh5xZnJu+Sw1q6
1yYZAJdVZcG6AQX3Mj7a0nrojkLtW8pJ3vnJHETwbgc4prOpZbWyg1mPQioAOQvE
P1Y9urLh0/YaD9SqI85wmBNpX7T3k1gGR9kuZ6SDyaogubNYJL1MbccJDtK4S13i
j5DcrTeAJJh60/Z3pLwITBxRPKAdpJOA27pn7wEVHgTEw8GkMd63txV52mqza8F7
oR5DVsKkWY6hMYvDfMDkEEYPZwu+lmo59t800MnR7YKO4VMyp+9H2p/Lpu+s2Rgh
CDGfVNQJK73+iG4Tr/5WCpKI/+cFYZu7E0gWlKI7gwmcaJDB99/9VWSib/tRCd+X
1ZePes4/Rc+FeyGhoEppv0nAnSz37ehRLItSubJ5YKg5oM0zN+EIkdMo9pmYaxlw
zpG+fJrWHCbPhx44U1h2fTc757BM0aHFkFoNxcygjnvO0h350vqp/lKZOwAqugW+
EmT1QW8evomlDk9TKfX+8Re14lG65fk1hsW4pFJ7ituu6pV+Y4eSdu1UOqcYZT4u
QUIT/6Ar4IkCJPaQDPS9Vqbi2q716b7XwyWtSWKKDPVzH11AsgleTcjBBhducmbU
HcNafkkReAK6nXxKULi00lzDsouJ+phRfOFwDuiI
-----END CERTIFICATE-----
