Certificate:
    Data:
        Version: 3 (0x2)
        Serial Number: 257 (0x101)
        Signature Algorithm: sha1WithRSAEncryption
        Issuer: C=US, ST=MD, O=Widgets, Inc., OU=IT, CN=ca10.deeztek.com/emailAddress=ca10@deeztek.com
        Validity
            Not Before: Aug 12 15:30:41 2013 GMT
            Not After : Aug 11 15:30:41 2018 GMT
        Subject: CN=subca10.deeztek.com/emailAddress=subca10@deeztek.com
        Subject Public Key Info:
            Public Key Algorithm: rsaEncryption
            RSA Public Key: (4096 bit)
                Modulus (4096 bit):
                    00:c3:e8:9b:86:f5:2b:b1:e2:3c:7b:75:2f:2e:26:
                    5c:db:0f:df:6b:dc:8a:d5:ea:02:50:d8:7c:52:99:
                    2c:85:3b:76:4a:95:54:eb:08:4e:92:dc:36:be:2a:
                    86:26:2c:00:b6:03:30:86:dc:17:4c:c2:c8:5f:a7:
                    57:d0:e5:13:59:45:34:a6:4b:9b:4b:9f:12:07:74:
                    ef:40:7e:1f:89:31:de:c0:16:26:89:04:4a:44:15:
                    78:2d:4b:1a:7d:94:3d:4d:17:83:fb:a1:31:c3:71:
                    fb:28:7a:88:59:be:f5:26:33:52:cd:ab:c9:85:11:
                    f0:85:bf:f7:5e:24:b5:1a:8b:14:49:e9:0f:de:18:
                    7a:ea:f5:7d:44:68:01:71:58:12:6a:a9:c8:b2:36:
                    6f:a7:72:5e:e7:da:f8:b1:e7:bc:bb:82:da:b5:ae:
                    18:45:3f:ed:65:e0:86:97:da:18:75:ad:65:3c:8b:
                    9d:ce:e8:de:d1:16:04:02:e3:ca:4b:39:06:30:2f:
                    1a:d6:4d:b9:2b:57:60:94:8b:3b:ee:c6:00:37:7c:
                    14:de:89:b0:70:7e:52:90:0d:14:09:f6:63:d2:bb:
                    34:3e:41:5f:24:b9:4e:5f:a7:de:51:cb:4f:81:98:
                    b9:36:e1:5a:a0:c2:1e:bc:61:10:80:93:95:77:e0:
                    a9:2c:fa:68:df:19:4a:fc:6c:b9:81:08:58:74:1b:
                    3f:62:56:ea:1a:46:9c:d5:0d:cb:a5:58:53:22:f3:
                    b9:fa:27:98:92:e1:34:c8:89:95:0d:41:80:b5:e9:
                    2f:05:5c:6b:b9:93:98:32:88:15:35:57:6a:ee:9a:
                    d7:0b:9a:ee:ca:a2:28:ef:0d:88:24:5b:e3:9b:52:
                    b9:16:55:34:36:49:11:47:55:38:a3:65:6e:1f:6c:
                    ee:b8:de:2b:22:5b:2f:2f:94:56:bd:ba:39:4c:0b:
                    d7:d7:69:cc:84:5a:b1:2f:31:f6:f5:93:3f:a7:6f:
                    af:8f:2f:98:ad:00:03:9e:b1:04:d0:b6:d2:6f:e9:
                    15:cd:7f:3c:91:96:e6:16:fb:70:59:e4:cb:77:1f:
                    dd:44:4e:19:86:6f:1c:03:ff:e3:04:05:be:d7:93:
                    92:1f:91:35:13:05:93:99:d4:ab:d3:6a:c4:59:6d:
                    2c:40:9e:a9:e4:6b:f2:60:da:f2:90:b4:44:46:90:
                    a4:e7:ee:26:d9:26:45:e8:fa:84:72:52:22:14:70:
                    d7:ab:d0:37:4d:82:7e:ed:43:c0:cf:6a:04:7e:80:
                    21:55:69:78:5d:d5:b5:ce:60:8b:77:66:52:9f:bd:
                    ab:81:4f:78:01:0b:91:50:cb:c5:28:82:82:1b:c7:
                    d9:bd:95
                Exponent: 65537 (0x10001)
        X509v3 extensions:
            X509v3 Subject Key Identifier: 
                76:28:AF:3E:2A:F5:6D:BC:68:31:A4:94:7C:BD:8D:5F:34:EA:7D:F0
            X509v3 Authority Key Identifier: 
                keyid:2E:E7:98:B5:1F:A4:95:DA:47:B9:FE:25:09:F8:D8:7A:B5:EC:E1:16
                DirName:/C=US/ST=MD/O=Widgets, Inc./OU=IT/CN=ca10.deeztek.com/emailAddress=ca10@deeztek.com
                serial:F5:AB:7B:6F:64:8A:93:9C

            X509v3 Basic Constraints: 
                CA:TRUE
    Signature Algorithm: sha1WithRSAEncryption
        28:50:2b:ab:74:13:cc:4d:2a:6c:71:d0:25:4a:0e:ab:1a:fd:
        2b:bc:fb:3a:fc:52:b3:2d:a7:b1:55:62:0d:e7:d9:fc:f4:1c:
        82:bf:46:a4:f5:3d:1e:43:5d:7c:32:ad:4c:a1:fa:95:32:3c:
        53:87:ec:53:2e:82:b8:f9:44:df:cc:7c:ef:56:8e:63:27:60:
        aa:02:5b:bd:b6:cd:50:f1:04:c1:8a:05:af:32:0d:f1:4c:2c:
        14:d7:39:44:e2:10:64:d5:48:17:3f:9a:c4:44:17:a7:c3:1d:
        9d:17:aa:aa:fb:49:f1:1b:4f:dd:2c:47:c0:37:61:99:3d:98:
        4d:cc:f3:5c:42:6b:89:ca:4d:b0:03:33:34:6f:f0:cf:6d:cb:
        5b:26:cd:d2:cc:c6:c6:3a:78:0f:e0:3f:e4:b2:ad:bd:a6:c7:
        6d:91:d1:22:89:ea:de:82:99:1e:6f:9a:62:c1:37:e6:54:d8:
        34:b4:80:f4:f2:21:d1:58:55:9a:c3:57:93:9b:4c:64:08:a4:
        11:13:02:0c:21:3a:6f:fc:d9:12:f8:9d:c1:b3:a2:44:ba:9d:
        98:48:be:0f:a8:04:83:07:22:0a:7b:f7:f8:1f:4f:d2:0d:5d:
        a7:f9:97:c0:1a:34:2a:fb:9e:63:5f:fa:2a:61:0e:59:fc:85:
        8b:70:96:4b:a5:9b:dd:6a:7d:4a:49:c7:81:19:09:24:a0:3f:
        f6:2c:c0:05:4e:cb:55:a6:d9:5a:db:4d:12:6f:73:d1:39:a6:
        68:e0:55:56:9e:44:10:26:96:36:38:c3:16:2b:2a:16:cb:be:
        29:c2:6c:c5:54:21:5c:e7:c0:a2:e7:e2:9f:49:54:78:83:37:
        dd:99:41:c0:20:99:fe:10:1f:1c:0a:65:aa:76:52:24:1a:e6:
        6c:25:ea:46:85:3d:78:09:5c:99:8b:7e:76:93:fc:91:f4:46:
        c7:5c:f9:a7:36:59:e9:8c:bc:da:44:31:f8:93:c4:d4:d1:1d:
        46:9f:1f:31:4e:3e:a6:e6:1f:db:c1:34:15:d2:6e:27:e1:7f:
        c7:78:96:60:94:7b:54:bb:35:7e:80:36:7a:a3:ef:40:63:a7:
        d6:94:56:f8:26:6f:07:74:cf:ab:fa:78:f2:e8:bd:1b:77:ab:
        2c:ce:d2:b0:9d:76:b9:c2:21:e4:62:0a:55:7a:95:f3:d8:d4:
        66:f8:cf:54:05:fb:84:b1:c5:87:12:29:39:d0:75:f5:80:51:
        c0:8e:05:3b:3b:b7:38:2e:f5:4e:30:1f:84:c5:53:70:78:ea:
        11:94:b4:8d:73:70:d4:fd:c0:45:32:ba:ff:50:c7:c2:91:16:
        0e:92:d5:3a:5f:7f:d7:4e
-----BEGIN CERTIFICATE-----
MIIGGjCCBAKgAwIBAgICAQEwDQYJKoZIhvcNAQEFBQAwezELMAkGA1UEBhMCVVMx
CzAJBgNVBAgTAk1EMRYwFAYDVQQKEw1XaWRnZXRzLCBJbmMuMQswCQYDVQQLEwJJ
VDEZMBcGA1UEAxMQY2ExMC5kZWV6dGVrLmNvbTEfMB0GCSqGSIb3DQEJARYQY2Ex
MEBkZWV6dGVrLmNvbTAeFw0xMzA4MTIxNTMwNDFaFw0xODA4MTExNTMwNDFaMEIx
HDAaBgNVBAMTE3N1YmNhMTAuZGVlenRlay5jb20xIjAgBgkqhkiG9w0BCQEWE3N1
YmNhMTBAZGVlenRlay5jb20wggIiMA0GCSqGSIb3DQEBAQUAA4ICDwAwggIKAoIC
AQDD6JuG9Sux4jx7dS8uJlzbD99r3IrV6gJQ2HxSmSyFO3ZKlVTrCE6S3Da+KoYm
LAC2AzCG3BdMwshfp1fQ5RNZRTSmS5tLnxIHdO9Afh+JMd7AFiaJBEpEFXgtSxp9
lD1NF4P7oTHDcfsoeohZvvUmM1LNq8mFEfCFv/deJLUaixRJ6Q/eGHrq9X1EaAFx
WBJqqciyNm+ncl7n2vix57y7gtq1rhhFP+1l4IaX2hh1rWU8i53O6N7RFgQC48pL
OQYwLxrWTbkrV2CUizvuxgA3fBTeibBwflKQDRQJ9mPSuzQ+QV8kuU5fp95Ry0+B
mLk24Vqgwh68YRCAk5V34Kks+mjfGUr8bLmBCFh0Gz9iVuoaRpzVDculWFMi87n6
J5iS4TTIiZUNQYC16S8FXGu5k5gyiBU1V2rumtcLmu7KoijvDYgkW+ObUrkWVTQ2
SRFHVTijZW4fbO643isiWy8vlFa9ujlMC9fXacyEWrEvMfb1kz+nb6+PL5itAAOe
sQTQttJv6RXNfzyRluYW+3BZ5Mt3H91EThmGbxwD/+MEBb7Xk5IfkTUTBZOZ1KvT
asRZbSxAnqnka/Jg2vKQtERGkKTn7ibZJkXo+oRyUiIUcNer0DdNgn7tQ8DPagR+
gCFVaXhd1bXOYIt3ZlKfvauBT3gBC5FQy8UogoIbx9m9lQIDAQABo4HgMIHdMB0G
A1UdDgQWBBR2KK8+KvVtvGgxpJR8vY1fNOp98DCBrQYDVR0jBIGlMIGigBQu55i1
H6SV2ke5/iUJ+Nh6tezhFqF/pH0wezELMAkGA1UEBhMCVVMxCzAJBgNVBAgTAk1E
MRYwFAYDVQQKEw1XaWRnZXRzLCBJbmMuMQswCQYDVQQLEwJJVDEZMBcGA1UEAxMQ
Y2ExMC5kZWV6dGVrLmNvbTEfMB0GCSqGSIb3DQEJARYQY2ExMEBkZWV6dGVrLmNv
bYIJAPWre29kipOcMAwGA1UdEwQFMAMBAf8wDQYJKoZIhvcNAQEFBQADggIBAChQ
K6t0E8xNKmxx0CVKDqsa/Su8+zr8UrMtp7FVYg3n2fz0HIK/RqT1PR5DXXwyrUyh
+pUyPFOH7FMugrj5RN/MfO9WjmMnYKoCW722zVDxBMGKBa8yDfFMLBTXOUTiEGTV
SBc/msREF6fDHZ0Xqqr7SfEbT90sR8A3YZk9mE3M81xCa4nKTbADMzRv8M9ty1sm
zdLMxsY6eA/gP+Syrb2mx22R0SKJ6t6CmR5vmmLBN+ZU2DS0gPTyIdFYVZrDV5Ob
TGQIpBETAgwhOm/82RL4ncGzokS6nZhIvg+oBIMHIgp79/gfT9INXaf5l8AaNCr7
nmNf+iphDln8hYtwlkulm91qfUpJx4EZCSSgP/YswAVOy1Wm2VrbTRJvc9E5pmjg
VVaeRBAmljY4wxYrKhbLvinCbMVUIVznwKLn4p9JVHiDN92ZQcAgmf4QHxwKZap2
UiQa5mwl6kaFPXgJXJmLfnaT/JH0Rsdc+ac2WemMvNpEMfiTxNTRHUafHzFOPqbm
H9vBNBXSbifhf8d4lmCUe1S7NX6ANnqj70Bjp9aUVvgmbwd0z6v6ePLovRt3qyzO
0rCddrnCIeRiClV6lfPY1Gb4z1QF+4SxxYcSKTnQdfWAUcCOBTs7tzgu9U4wH4TF
U3B46hGUtI1zcNT9wEUyuv9Qx8KRFg6S1Tpff9dO
-----END CERTIFICATE-----
