Certificate:
    Data:
        Version: 3 (0x2)
        Serial Number: 258 (0x102)
        Signature Algorithm: sha1WithRSAEncryption
        Issuer: C=US, ST=MD, O=Widgets, Inc., OU=IT, CN=ca10.deeztek.com/emailAddress=ca10@deeztek.com
        Validity
            Not Before: Aug 12 15:32:17 2013 GMT
            Not After : Aug 11 15:32:17 2018 GMT
        Subject: CN=subca10.deeztek.com/emailAddress=subca10@deeztek.com
        Subject Public Key Info:
            Public Key Algorithm: rsaEncryption
            RSA Public Key: (4096 bit)
                Modulus (4096 bit):
                    00:c3:e8:9b:86:f5:2b:b1:e2:3c:7b:75:2f:2e:26:
                    5c:db:0f:df:6b:dc:8a:d5:ea:02:50:d8:7c:52:99:
                    2c:85:3b:76:4a:95:54:eb:08:4e:92:dc:36:be:2a:
                    86:26:2c:00:b6:03:30:86:dc:17:4c:c2:c8:5f:a7:
                    57:d0:e5:13:59:45:34:a6:4b:9b:4b:9f:12:07:74:
                    ef:40:7e:1f:89:31:de:c0:16:26:89:04:4a:44:15:
                    78:2d:4b:1a:7d:94:3d:4d:17:83:fb:a1:31:c3:71:
                    fb:28:7a:88:59:be:f5:26:33:52:cd:ab:c9:85:11:
                    f0:85:bf:f7:5e:24:b5:1a:8b:14:49:e9:0f:de:18:
                    7a:ea:f5:7d:44:68:01:71:58:12:6a:a9:c8:b2:36:
                    6f:a7:72:5e:e7:da:f8:b1:e7:bc:bb:82:da:b5:ae:
                    18:45:3f:ed:65:e0:86:97:da:18:75:ad:65:3c:8b:
                    9d:ce:e8:de:d1:16:04:02:e3:ca:4b:39:06:30:2f:
                    1a:d6:4d:b9:2b:57:60:94:8b:3b:ee:c6:00:37:7c:
                    14:de:89:b0:70:7e:52:90:0d:14:09:f6:63:d2:bb:
                    34:3e:41:5f:24:b9:4e:5f:a7:de:51:cb:4f:81:98:
                    b9:36:e1:5a:a0:c2:1e:bc:61:10:80:93:95:77:e0:
                    a9:2c:fa:68:df:19:4a:fc:6c:b9:81:08:58:74:1b:
                    3f:62:56:ea:1a:46:9c:d5:0d:cb:a5:58:53:22:f3:
                    b9:fa:27:98:92:e1:34:c8:89:95:0d:41:80:b5:e9:
                    2f:05:5c:6b:b9:93:98:32:88:15:35:57:6a:ee:9a:
                    d7:0b:9a:ee:ca:a2:28:ef:0d:88:24:5b:e3:9b:52:
                    b9:16:55:34:36:49:11:47:55:38:a3:65:6e:1f:6c:
                    ee:b8:de:2b:22:5b:2f:2f:94:56:bd:ba:39:4c:0b:
                    d7:d7:69:cc:84:5a:b1:2f:31:f6:f5:93:3f:a7:6f:
                    af:8f:2f:98:ad:00:03:9e:b1:04:d0:b6:d2:6f:e9:
                    15:cd:7f:3c:91:96:e6:16:fb:70:59:e4:cb:77:1f:
                    dd:44:4e:19:86:6f:1c:03:ff:e3:04:05:be:d7:93:
                    92:1f:91:35:13:05:93:99:d4:ab:d3:6a:c4:59:6d:
                    2c:40:9e:a9:e4:6b:f2:60:da:f2:90:b4:44:46:90:
                    a4:e7:ee:26:d9:26:45:e8:fa:84:72:52:22:14:70:
                    d7:ab:d0:37:4d:82:7e:ed:43:c0:cf:6a:04:7e:80:
                    21:55:69:78:5d:d5:b5:ce:60:8b:77:66:52:9f:bd:
                    ab:81:4f:78:01:0b:91:50:cb:c5:28:82:82:1b:c7:
                    d9:bd:95
                Exponent: 65537 (0x10001)
        X509v3 extensions:
            X509v3 Subject Key Identifier: 
                76:28:AF:3E:2A:F5:6D:BC:68:31:A4:94:7C:BD:8D:5F:34:EA:7D:F0
            X509v3 Authority Key Identifier: 
                keyid:2E:E7:98:B5:1F:A4:95:DA:47:B9:FE:25:09:F8:D8:7A:B5:EC:E1:16
                DirName:/C=US/ST=MD/O=Widgets, Inc./OU=IT/CN=ca10.deeztek.com/emailAddress=ca10@deeztek.com
                serial:F5:AB:7B:6F:64:8A:93:9C

            X509v3 Basic Constraints: 
                CA:TRUE
    Signature Algorithm: sha1WithRSAEncryption
        51:3b:9b:a7:05:8f:61:11:d0:16:b9:59:2b:6c:ca:92:bf:ec:
        cc:85:ed:04:cf:95:45:da:26:9c:4e:7e:75:6a:17:01:1d:2f:
        49:7a:74:85:6e:2b:9e:59:cd:d2:f3:33:b3:a9:1e:b3:ec:61:
        c8:0b:bf:0f:77:19:e2:f7:9d:cd:e8:ee:2f:05:0b:2e:82:7e:
        8e:d4:26:c5:35:e4:25:35:12:5c:ad:16:db:e8:57:3a:00:2f:
        10:e6:9a:87:e4:f6:0c:9f:93:66:e0:5d:73:c3:52:ee:69:a2:
        48:d2:65:e8:08:81:c5:ea:5b:6c:46:b8:03:0d:1f:06:69:83:
        a6:e4:b4:74:ee:0d:b0:d1:a3:ca:21:f6:98:47:56:2e:55:b3:
        41:61:b3:ef:1a:b5:f5:81:9c:04:20:5f:43:3a:4b:f8:bf:7c:
        a4:88:ac:4e:4e:f1:b0:61:3d:7a:78:8f:58:3f:80:5f:44:36:
        82:cb:2d:67:e0:ff:db:9e:c3:80:7c:dd:29:a7:ca:4a:21:91:
        84:25:90:7a:fa:6d:de:2b:0b:27:36:6e:a1:e9:3e:0c:28:a3:
        30:c4:1e:f7:4c:2b:c2:67:e9:17:14:21:b5:39:b0:e8:e6:bd:
        c3:28:0f:1d:72:c0:ef:30:3c:14:dd:17:a3:77:e0:5f:9d:d0:
        b7:56:03:7e:dd:5a:02:af:4e:64:2d:07:7d:40:70:f8:81:08:
        17:fd:21:f7:3a:50:c5:48:7d:c0:73:d2:01:5e:1b:8f:75:72:
        e0:2f:95:8b:23:50:67:2e:28:26:39:e5:ee:a3:fe:28:81:ee:
        e2:c2:b8:21:6b:98:03:a2:9b:f4:29:28:7b:b8:52:3d:b0:64:
        6f:55:1a:fc:9b:b8:55:f6:87:05:2b:ed:af:b7:59:7b:11:5d:
        3b:16:1d:8b:5a:c4:7c:4a:e8:b3:6a:ae:65:5e:f1:87:15:fa:
        ab:64:57:a5:92:f2:bb:27:4a:f6:6e:cd:11:97:a1:ac:e2:41:
        20:33:27:18:c9:ba:ef:4e:d7:9c:7a:c0:6f:6f:c3:00:34:8d:
        38:2a:7f:97:fd:87:d9:8a:cb:c5:35:04:6f:60:c7:20:58:f7:
        87:e8:ca:a3:2e:1b:ca:a0:b9:d4:4b:fb:81:11:68:88:5b:51:
        c2:1d:44:0a:78:75:98:03:e8:dd:38:28:3f:56:70:73:56:1e:
        10:d6:c2:17:5e:5f:10:26:ef:76:9c:3a:3b:f9:a0:06:17:20:
        4c:17:52:dd:15:16:db:84:35:4e:17:c5:5b:c4:3b:7c:9b:ff:
        20:25:33:c5:4c:a8:30:0d:75:c9:50:ee:69:ce:9f:a7:9d:35:
        99:35:2e:ad:56:c2:d4:86
-----BEGIN CERTIFICATE-----
MIIGGjCCBAKgAwIBAgICAQIwDQYJKoZIhvcNAQEFBQAwezELMAkGA1UEBhMCVVMx
CzAJBgNVBAgTAk1EMRYwFAYDVQQKEw1XaWRnZXRzLCBJbmMuMQswCQYDVQQLEwJJ
VDEZMBcGA1UEAxMQY2ExMC5kZWV6dGVrLmNvbTEfMB0GCSqGSIb3DQEJARYQY2Ex
MEBkZWV6dGVrLmNvbTAeFw0xMzA4MTIxNTMyMTdaFw0xODA4MTExNTMyMTdaMEIx
HDAaBgNVBAMTE3N1YmNhMTAuZGVlenRlay5jb20xIjAgBgkqhkiG9w0BCQEWE3N1
YmNhMTBAZGVlenRlay5jb20wggIiMA0GCSqGSIb3DQEBAQUAA4ICDwAwggIKAoIC
AQDD6JuG9Sux4jx7dS8uJlzbD99r3IrV6gJQ2HxSmSyFO3ZKlVTrCE6S3Da+KoYm
LAC2AzCG3BdMwshfp1fQ5RNZRTSmS5tLnxIHdO9Afh+JMd7AFiaJBEpEFXgtSxp9
lD1NF4P7oTHDcfsoeohZvvUmM1LNq8mFEfCFv/deJLUaixRJ6Q/eGHrq9X1EaAFx
WBJqqciyNm+ncl7n2vix57y7gtq1rhhFP+1l4IaX2hh1rWU8i53O6N7RFgQC48pL
OQYwLxrWTbkrV2CUizvuxgA3fBTeibBwflKQDRQJ9mPSuzQ+QV8kuU5fp95Ry0+B
mLk24Vqgwh68YRCAk5V34Kks+mjfGUr8bLmBCFh0Gz9iVuoaRpzVDculWFMi87n6
J5iS4TTIiZUNQYC16S8FXGu5k5gyiBU1V2rumtcLmu7KoijvDYgkW+ObUrkWVTQ2
SRFHVTijZW4fbO643isiWy8vlFa9ujlMC9fXacyEWrEvMfb1kz+nb6+PL5itAAOe
sQTQttJv6RXNfzyRluYW+3BZ5Mt3H91EThmGbxwD/+MEBb7Xk5IfkTUTBZOZ1KvT
asRZbSxAnqnka/Jg2vKQtERGkKTn7ibZJkXo+oRyUiIUcNer0DdNgn7tQ8DPagR+
gCFVaXhd1bXOYIt3ZlKfvauBT3gBC5FQy8UogoIbx9m9lQIDAQABo4HgMIHdMB0G
A1UdDgQWBBR2KK8+KvVtvGgxpJR8vY1fNOp98DCBrQYDVR0jBIGlMIGigBQu55i1
H6SV2ke5/iUJ+Nh6tezhFqF/pH0wezELMAkGA1UEBhMCVVMxCzAJBgNVBAgTAk1E
MRYwFAYDVQQKEw1XaWRnZXRzLCBJbmMuMQswCQYDVQQLEwJJVDEZMBcGA1UEAxMQ
Y2ExMC5kZWV6dGVrLmNvbTEfMB0GCSqGSIb3DQEJARYQY2ExMEBkZWV6dGVrLmNv
bYIJAPWre29kipOcMAwGA1UdEwQFMAMBAf8wDQYJKoZIhvcNAQEFBQADggIBAFE7
m6cFj2ER0Ba5WStsypK/7MyF7QTPlUXaJpxOfnVqFwEdL0l6dIVuK55ZzdLzM7Op
HrPsYcgLvw93GeL3nc3o7i8FCy6Cfo7UJsU15CU1ElytFtvoVzoALxDmmofk9gyf
k2bgXXPDUu5pokjSZegIgcXqW2xGuAMNHwZpg6bktHTuDbDRo8oh9phHVi5Vs0Fh
s+8atfWBnAQgX0M6S/i/fKSIrE5O8bBhPXp4j1g/gF9ENoLLLWfg/9uew4B83Smn
ykohkYQlkHr6bd4rCyc2bqHpPgwoozDEHvdMK8Jn6RcUIbU5sOjmvcMoDx1ywO8w
PBTdF6N34F+d0LdWA37dWgKvTmQtB31AcPiBCBf9Ifc6UMVIfcBz0gFeG491cuAv
lYsjUGcuKCY55e6j/iiB7uLCuCFrmAOim/QpKHu4Uj2wZG9VGvybuFX2hwUr7a+3
WXsRXTsWHYtaxHxK6LNqrmVe8YcV+qtkV6WS8rsnSvZuzRGXoaziQSAzJxjJuu9O
15x6wG9vwwA0jTgqf5f9h9mKy8U1BG9gxyBY94foyqMuG8qgudRL+4ERaIhbUcId
RAp4dZgD6N04KD9WcHNWHhDWwhdeXxAm73acOjv5oAYXIEwXUt0VFtuENU4XxVvE
O3yb/yAlM8VMqDANdclQ7mnOn6edNZk1Lq1WwtSG
-----END CERTIFICATE-----
