Certificate:
    Data:
        Version: 3 (0x2)
        Serial Number: 259 (0x103)
        Signature Algorithm: sha1WithRSAEncryption
        Issuer: C=US, ST=MD, O=Widgets, Inc., OU=IT, CN=ca10.deeztek.com/emailAddress=ca10@deeztek.com
        Validity
            Not Before: Aug 12 15:32:32 2013 GMT
            Not After : Aug 11 15:32:32 2018 GMT
        Subject: CN=subca10.deeztek.com/emailAddress=subca10@deeztek.com
        Subject Public Key Info:
            Public Key Algorithm: rsaEncryption
            RSA Public Key: (4096 bit)
                Modulus (4096 bit):
                    00:c3:e8:9b:86:f5:2b:b1:e2:3c:7b:75:2f:2e:26:
                    5c:db:0f:df:6b:dc:8a:d5:ea:02:50:d8:7c:52:99:
                    2c:85:3b:76:4a:95:54:eb:08:4e:92:dc:36:be:2a:
                    86:26:2c:00:b6:03:30:86:dc:17:4c:c2:c8:5f:a7:
                    57:d0:e5:13:59:45:34:a6:4b:9b:4b:9f:12:07:74:
                    ef:40:7e:1f:89:31:de:c0:16:26:89:04:4a:44:15:
                    78:2d:4b:1a:7d:94:3d:4d:17:83:fb:a1:31:c3:71:
                    fb:28:7a:88:59:be:f5:26:33:52:cd:ab:c9:85:11:
                    f0:85:bf:f7:5e:24:b5:1a:8b:14:49:e9:0f:de:18:
                    7a:ea:f5:7d:44:68:01:71:58:12:6a:a9:c8:b2:36:
                    6f:a7:72:5e:e7:da:f8:b1:e7:bc:bb:82:da:b5:ae:
                    18:45:3f:ed:65:e0:86:97:da:18:75:ad:65:3c:8b:
                    9d:ce:e8:de:d1:16:04:02:e3:ca:4b:39:06:30:2f:
                    1a:d6:4d:b9:2b:57:60:94:8b:3b:ee:c6:00:37:7c:
                    14:de:89:b0:70:7e:52:90:0d:14:09:f6:63:d2:bb:
                    34:3e:41:5f:24:b9:4e:5f:a7:de:51:cb:4f:81:98:
                    b9:36:e1:5a:a0:c2:1e:bc:61:10:80:93:95:77:e0:
                    a9:2c:fa:68:df:19:4a:fc:6c:b9:81:08:58:74:1b:
                    3f:62:56:ea:1a:46:9c:d5:0d:cb:a5:58:53:22:f3:
                    b9:fa:27:98:92:e1:34:c8:89:95:0d:41:80:b5:e9:
                    2f:05:5c:6b:b9:93:98:32:88:15:35:57:6a:ee:9a:
                    d7:0b:9a:ee:ca:a2:28:ef:0d:88:24:5b:e3:9b:52:
                    b9:16:55:34:36:49:11:47:55:38:a3:65:6e:1f:6c:
                    ee:b8:de:2b:22:5b:2f:2f:94:56:bd:ba:39:4c:0b:
                    d7:d7:69:cc:84:5a:b1:2f:31:f6:f5:93:3f:a7:6f:
                    af:8f:2f:98:ad:00:03:9e:b1:04:d0:b6:d2:6f:e9:
                    15:cd:7f:3c:91:96:e6:16:fb:70:59:e4:cb:77:1f:
                    dd:44:4e:19:86:6f:1c:03:ff:e3:04:05:be:d7:93:
                    92:1f:91:35:13:05:93:99:d4:ab:d3:6a:c4:59:6d:
                    2c:40:9e:a9:e4:6b:f2:60:da:f2:90:b4:44:46:90:
                    a4:e7:ee:26:d9:26:45:e8:fa:84:72:52:22:14:70:
                    d7:ab:d0:37:4d:82:7e:ed:43:c0:cf:6a:04:7e:80:
                    21:55:69:78:5d:d5:b5:ce:60:8b:77:66:52:9f:bd:
                    ab:81:4f:78:01:0b:91:50:cb:c5:28:82:82:1b:c7:
                    d9:bd:95
                Exponent: 65537 (0x10001)
        X509v3 extensions:
            X509v3 Subject Key Identifier: 
                76:28:AF:3E:2A:F5:6D:BC:68:31:A4:94:7C:BD:8D:5F:34:EA:7D:F0
            X509v3 Authority Key Identifier: 
                keyid:2E:E7:98:B5:1F:A4:95:DA:47:B9:FE:25:09:F8:D8:7A:B5:EC:E1:16
                DirName:/C=US/ST=MD/O=Widgets, Inc./OU=IT/CN=ca10.deeztek.com/emailAddress=ca10@deeztek.com
                serial:F5:AB:7B:6F:64:8A:93:9C

            X509v3 Basic Constraints: 
                CA:TRUE
    Signature Algorithm: sha1WithRSAEncryption
        5e:c5:97:ed:fe:76:d5:c7:39:81:28:19:26:d2:03:4c:6c:54:
        c0:cd:24:57:07:53:b3:92:65:30:01:25:63:00:48:c4:a2:51:
        57:49:60:a6:03:13:78:f9:02:ce:f8:06:19:66:01:f3:d9:0a:
        56:28:01:8d:09:b7:45:1c:d1:9f:0e:cb:f4:af:cd:f5:2b:b0:
        35:07:1d:44:c2:0b:93:0e:7f:41:cc:b8:5c:13:d4:71:4b:b6:
        d3:f0:fd:09:5e:ec:ff:bd:3b:d9:87:0d:3f:bb:b9:95:9b:42:
        60:8f:6d:cb:e9:4e:8b:0e:82:c9:3b:12:c8:48:9e:e2:c1:7a:
        03:9a:a1:5c:ab:19:5f:39:84:12:bc:7e:31:19:c2:67:76:ef:
        4a:31:af:d2:e7:df:23:d4:a5:45:f2:27:fc:05:00:61:ca:32:
        5e:7e:f3:26:b8:99:a2:17:e2:4b:7a:e7:24:0e:c2:71:e3:a5:
        57:de:7b:cb:83:6c:a4:03:a7:b0:c4:a4:fb:a8:cd:52:b5:96:
        ac:88:c5:47:69:05:57:64:f3:9c:a8:df:09:b6:19:4c:1a:04:
        8a:68:80:fb:22:dd:dd:05:d6:d0:f8:c8:6a:d7:47:9b:bf:04:
        c3:70:d7:31:3f:b8:74:30:6a:39:29:ba:d7:67:05:e8:52:da:
        c0:c3:1b:19:83:7c:ce:57:7c:5a:67:55:95:6f:98:b3:1d:c6:
        01:d1:e6:3d:eb:ce:f0:39:f5:d3:78:bd:cd:5f:1c:ca:03:98:
        5e:6d:46:5a:2f:b3:3c:71:59:36:d9:ec:1c:e3:8b:d2:20:31:
        49:37:aa:40:d6:9c:9d:86:4d:cf:26:ac:14:3c:77:2d:12:a2:
        a4:fe:ca:79:e0:03:49:59:23:37:3a:d1:f6:90:74:a2:b6:80:
        a8:fe:7c:1f:b8:58:f6:4c:0b:58:1e:f4:00:48:ab:82:c8:af:
        84:f3:11:e8:2a:61:81:82:44:1e:b4:2e:33:01:8f:fe:68:34:
        45:8d:d1:6a:67:00:02:c2:e4:38:35:87:0b:5e:c6:bc:df:6f:
        2d:3f:25:95:fb:c3:a9:ce:a2:46:b1:40:e1:66:09:13:c2:05:
        68:b5:96:1b:29:f4:7d:61:7f:f3:12:4d:68:a7:55:a2:0c:49:
        77:e4:b9:99:09:c6:ff:09:ee:98:a7:eb:c2:21:91:c5:b9:1c:
        68:52:f8:4e:4d:b5:d4:83:44:68:a2:71:a3:78:b6:c3:f4:72:
        71:a1:2b:45:4b:a3:0d:0d:8a:82:df:1a:64:f3:8a:12:be:d9:
        91:f4:cd:55:62:87:b4:d1:d2:85:3a:b8:9d:ec:a9:26:bb:57:
        96:95:e0:ba:b4:0f:05:03
-----BEGIN CERTIFICATE-----
MIIGGjCCBAKgAwIBAgICAQMwDQYJKoZIhvcNAQEFBQAwezELMAkGA1UEBhMCVVMx
CzAJBgNVBAgTAk1EMRYwFAYDVQQKEw1XaWRnZXRzLCBJbmMuMQswCQYDVQQLEwJJ
VDEZMBcGA1UEAxMQY2ExMC5kZWV6dGVrLmNvbTEfMB0GCSqGSIb3DQEJARYQY2Ex
MEBkZWV6dGVrLmNvbTAeFw0xMzA4MTIxNTMyMzJaFw0xODA4MTExNTMyMzJaMEIx
HDAaBgNVBAMTE3N1YmNhMTAuZGVlenRlay5jb20xIjAgBgkqhkiG9w0BCQEWE3N1
YmNhMTBAZGVlenRlay5jb20wggIiMA0GCSqGSIb3DQEBAQUAA4ICDwAwggIKAoIC
AQDD6JuG9Sux4jx7dS8uJlzbD99r3IrV6gJQ2HxSmSyFO3ZKlVTrCE6S3Da+KoYm
LAC2AzCG3BdMwshfp1fQ5RNZRTSmS5tLnxIHdO9Afh+JMd7AFiaJBEpEFXgtSxp9
lD1NF4P7oTHDcfsoeohZvvUmM1LNq8mFEfCFv/deJLUaixRJ6Q/eGHrq9X1EaAFx
WBJqqciyNm+ncl7n2vix57y7gtq1rhhFP+1l4IaX2hh1rWU8i53O6N7RFgQC48pL
OQYwLxrWTbkrV2CUizvuxgA3fBTeibBwflKQDRQJ9mPSuzQ+QV8kuU5fp95Ry0+B
mLk24Vqgwh68YRCAk5V34Kks+mjfGUr8bLmBCFh0Gz9iVuoaRpzVDculWFMi87n6
J5iS4TTIiZUNQYC16S8FXGu5k5gyiBU1V2rumtcLmu7KoijvDYgkW+ObUrkWVTQ2
SRFHVTijZW4fbO643isiWy8vlFa9ujlMC9fXacyEWrEvMfb1kz+nb6+PL5itAAOe
sQTQttJv6RXNfzyRluYW+3BZ5Mt3H91EThmGbxwD/+MEBb7Xk5IfkTUTBZOZ1KvT
asRZbSxAnqnka/Jg2vKQtERGkKTn7ibZJkXo+oRyUiIUcNer0DdNgn7tQ8DPagR+
gCFVaXhd1bXOYIt3ZlKfvauBT3gBC5FQy8UogoIbx9m9lQIDAQABo4HgMIHdMB0G
A1UdDgQWBBR2KK8+KvVtvGgxpJR8vY1fNOp98DCBrQYDVR0jBIGlMIGigBQu55i1
H6SV2ke5/iUJ+Nh6tezhFqF/pH0wezELMAkGA1UEBhMCVVMxCzAJBgNVBAgTAk1E
MRYwFAYDVQQKEw1XaWRnZXRzLCBJbmMuMQswCQYDVQQLEwJJVDEZMBcGA1UEAxMQ
Y2ExMC5kZWV6dGVrLmNvbTEfMB0GCSqGSIb3DQEJARYQY2ExMEBkZWV6dGVrLmNv
bYIJAPWre29kipOcMAwGA1UdEwQFMAMBAf8wDQYJKoZIhvcNAQEFBQADggIBAF7F
l+3+dtXHOYEoGSbSA0xsVMDNJFcHU7OSZTABJWMASMSiUVdJYKYDE3j5As74Bhlm
AfPZClYoAY0Jt0Uc0Z8Oy/SvzfUrsDUHHUTCC5MOf0HMuFwT1HFLttPw/Qle7P+9
O9mHDT+7uZWbQmCPbcvpTosOgsk7EshInuLBegOaoVyrGV85hBK8fjEZwmd270ox
r9Ln3yPUpUXyJ/wFAGHKMl5+8ya4maIX4kt65yQOwnHjpVfee8uDbKQDp7DEpPuo
zVK1lqyIxUdpBVdk85yo3wm2GUwaBIpogPsi3d0F1tD4yGrXR5u/BMNw1zE/uHQw
ajkputdnBehS2sDDGxmDfM5XfFpnVZVvmLMdxgHR5j3rzvA59dN4vc1fHMoDmF5t
RlovszxxWTbZ7Bzji9IgMUk3qkDWnJ2GTc8mrBQ8dy0SoqT+ynngA0lZIzc60faQ
dKK2gKj+fB+4WPZMC1ge9ABIq4LIr4TzEegqYYGCRB60LjMBj/5oNEWN0WpnAALC
5Dg1hwtexrzfby0/JZX7w6nOokaxQOFmCRPCBWi1lhsp9H1hf/MSTWinVaIMSXfk
uZkJxv8J7pin68IhkcW5HGhS+E5NtdSDRGiicaN4tsP0cnGhK0VLow0NioLfGmTz
ihK+2ZH0zVVih7TR0oU6uJ3sqSa7V5aV4Lq0DwUD
-----END CERTIFICATE-----
