Certificate:
    Data:
        Version: 3 (0x2)
        Serial Number: 260 (0x104)
        Signature Algorithm: sha1WithRSAEncryption
        Issuer: C=US, ST=MD, O=Widgets, Inc., OU=IT, CN=ca10.deeztek.com/emailAddress=ca10@deeztek.com
        Validity
            Not Before: Aug 13 18:50:41 2013 GMT
            Not After : Aug 12 18:50:41 2018 GMT
        Subject: CN=intca10.deeztek.com/emailAddress=intca10@deeztek.com
        Subject Public Key Info:
            Public Key Algorithm: rsaEncryption
            RSA Public Key: (4096 bit)
                Modulus (4096 bit):
                    00:cb:cd:c6:a7:ea:4d:7b:da:b5:29:51:59:d8:6b:
                    37:b0:ec:44:8d:c6:67:da:78:17:a0:d5:7b:2f:b0:
                    e2:ce:ac:bd:3d:cb:b3:aa:b3:e8:66:f7:7b:69:bd:
                    5c:43:1b:2b:6e:83:38:0c:7b:27:38:fb:74:fe:e1:
                    b5:13:fc:ec:92:31:4c:4c:a0:4b:80:4f:02:fc:64:
                    54:4b:22:86:09:58:72:4c:e5:99:f5:d7:c9:90:2a:
                    b2:b3:f1:73:5b:35:76:b0:ed:35:d9:9c:5b:bc:c2:
                    31:80:7c:67:a4:a2:39:58:c9:f6:ba:bf:49:1d:e4:
                    fa:8a:17:e2:f7:c5:74:f8:0c:88:14:3e:d0:62:12:
                    db:8b:bf:8a:7c:ca:bd:ba:72:ed:13:46:60:96:d1:
                    d9:32:43:19:41:06:de:3d:4f:4b:42:4d:c1:83:0c:
                    23:80:e5:5a:9a:d8:4d:69:29:b1:25:8d:49:89:fa:
                    c8:60:f0:a0:da:04:49:7a:19:35:be:5c:a6:5c:76:
                    e1:a3:bb:3b:94:4d:ce:29:73:6d:d4:0c:8a:81:d0:
                    ad:7f:c5:e6:e4:e2:28:da:ac:67:5e:0e:4a:3c:c3:
                    1a:5d:8d:b6:e9:77:a3:a1:07:a2:de:d3:20:60:7c:
                    24:89:a6:85:31:3c:7f:a3:d5:9d:f7:34:45:3f:79:
                    18:13:ae:82:19:f1:f7:47:ed:ad:f0:d4:16:5b:9d:
                    4f:0b:44:f1:71:b0:67:1a:04:bd:80:c1:9d:16:ef:
                    aa:43:f4:d1:ed:51:d4:36:d5:81:75:18:34:40:c3:
                    75:20:77:9f:c8:c7:cd:b6:89:f6:8f:c7:aa:c0:89:
                    69:8e:d6:8d:c8:7c:dd:cb:d3:0a:79:48:8c:01:f2:
                    6a:8c:21:0e:e1:fe:ad:8b:56:98:11:3c:01:c0:fb:
                    ce:db:78:61:0c:dc:fb:a2:9e:c0:10:4e:79:51:41:
                    7f:41:49:6d:ee:98:c0:a5:4a:79:6c:39:8b:2e:d3:
                    4a:e9:b0:84:27:8c:3c:58:64:3f:db:9d:b9:79:45:
                    7d:dc:02:87:80:92:3a:c7:7f:3a:a4:da:c1:a3:d2:
                    1d:cf:03:38:cf:35:41:8d:5b:d6:a2:fe:56:e4:82:
                    0b:47:99:c5:e3:c3:b3:b1:ce:cc:7e:90:8d:c5:9b:
                    e0:8f:0f:91:08:a7:e9:d1:6f:4d:12:b7:65:3a:b2:
                    ac:0f:97:3f:a6:3f:ea:e6:63:0e:82:ec:15:7b:cf:
                    7c:71:e7:c6:12:b1:cd:64:8f:7e:dd:c8:57:90:d7:
                    a9:61:3a:94:aa:73:86:8f:4f:2a:74:02:ab:5d:35:
                    e7:fb:c7:40:95:40:ba:5b:8f:fc:ff:a5:35:70:92:
                    ad:46:15
                Exponent: 65537 (0x10001)
        X509v3 extensions:
            X509v3 Subject Key Identifier: 
                75:01:08:4A:38:1A:A8:71:88:34:70:47:06:AC:92:15:07:E8:E3:D2
            X509v3 Authority Key Identifier: 
                keyid:2E:E7:98:B5:1F:A4:95:DA:47:B9:FE:25:09:F8:D8:7A:B5:EC:E1:16
                DirName:/C=US/ST=MD/O=Widgets, Inc./OU=IT/CN=ca10.deeztek.com/emailAddress=ca10@deeztek.com
                serial:F5:AB:7B:6F:64:8A:93:9C

            X509v3 Basic Constraints: 
                CA:TRUE
    Signature Algorithm: sha1WithRSAEncryption
        31:7a:59:1a:a7:9a:fe:bf:d0:f5:b1:8c:cb:96:ce:13:16:27:
        a9:84:6c:7a:d8:f2:89:43:64:d4:3c:6e:a6:dc:93:ff:f0:0e:
        12:d3:87:25:34:d7:ba:33:11:41:29:14:cb:93:8a:ed:19:00:
        5f:cf:fd:7c:de:ad:86:b3:99:20:5f:66:ef:a7:b4:d4:88:9c:
        db:5c:dc:39:eb:38:b4:32:19:20:6e:9f:db:bb:7b:a9:ad:4d:
        71:3c:80:d7:87:d5:dc:19:9e:45:cb:e4:7a:c9:b0:16:ca:bb:
        91:9d:b0:a0:70:1d:86:d0:81:5b:b6:cd:ce:7d:36:8e:5a:88:
        5f:88:98:4b:10:38:35:7a:3f:a6:3b:9e:b3:0c:57:02:f9:95:
        05:a9:6b:f4:8d:7b:80:42:f6:ab:a8:9f:39:44:57:80:7b:0e:
        0e:ff:da:35:67:1e:8d:b0:d3:5e:7d:05:ec:58:11:a8:99:ee:
        2d:9d:7e:58:02:24:c7:17:e8:0a:67:b7:92:79:3d:7e:8e:29:
        fc:e3:27:69:96:bd:c1:37:b2:54:12:d4:9c:34:13:a7:7c:77:
        d7:57:fa:e2:85:58:51:d8:21:58:1a:77:39:96:24:52:65:6e:
        17:76:14:50:c5:45:d6:0a:db:25:a1:8c:be:a4:2d:5e:f9:36:
        07:51:63:8c:f4:b3:10:c4:23:9e:b6:1b:ba:ac:4a:dd:74:ce:
        d6:8f:77:b1:d8:87:32:41:6c:50:03:88:25:7d:23:25:ab:21:
        1e:d6:b6:4e:98:dc:61:ba:f3:b2:5a:32:cb:e3:63:b7:b4:01:
        54:7d:94:72:8d:20:55:af:7b:ea:95:16:64:6b:bd:fc:78:3f:
        d8:da:fb:27:43:48:0b:33:2a:49:5c:d7:4f:4e:7e:b9:3e:8d:
        23:e8:c1:0c:1e:61:b0:2f:53:88:61:aa:98:03:42:5a:00:16:
        12:44:02:93:f1:15:78:9e:a0:6d:4a:c3:97:db:93:46:30:43:
        fd:a6:47:f9:31:80:d5:da:aa:f8:e0:14:66:71:dc:1a:df:ef:
        50:b8:b2:29:a0:68:da:c2:33:5f:dc:6d:9c:25:13:61:0e:84:
        63:b8:36:cd:20:d0:75:4b:91:98:fb:2d:0e:bd:d9:d7:2c:f4:
        c4:3d:70:2f:e0:8e:27:a0:62:5d:28:dd:51:19:2f:50:69:50:
        6b:f1:8a:d3:f9:c2:b9:3f:37:7b:18:7d:b5:e4:5c:b1:2f:f2:
        56:4b:64:e5:d3:3f:f9:1a:fd:2d:a0:9a:66:ae:14:6d:92:8f:
        ee:91:18:11:e9:e6:1c:de:07:4f:fd:93:fd:21:61:de:0b:d4:
        a0:cb:d7:55:7b:f6:68:a9
-----BEGIN CERTIFICATE-----
MIIGGjCCBAKgAwIBAgICAQQwDQYJKoZIhvcNAQEFBQAwezELMAkGA1UEBhMCVVMx
CzAJBgNVBAgTAk1EMRYwFAYDVQQKEw1XaWRnZXRzLCBJbmMuMQswCQYDVQQLEwJJ
VDEZMBcGA1UEAxMQY2ExMC5kZWV6dGVrLmNvbTEfMB0GCSqGSIb3DQEJARYQY2Ex
MEBkZWV6dGVrLmNvbTAeFw0xMzA4MTMxODUwNDFaFw0xODA4MTIxODUwNDFaMEIx
HDAaBgNVBAMTE2ludGNhMTAuZGVlenRlay5jb20xIjAgBgkqhkiG9w0BCQEWE2lu
dGNhMTBAZGVlenRlay5jb20wggIiMA0GCSqGSIb3DQEBAQUAA4ICDwAwggIKAoIC
AQDLzcan6k172rUpUVnYazew7ESNxmfaeBeg1XsvsOLOrL09y7Oqs+hm93tpvVxD
GytugzgMeyc4+3T+4bUT/OySMUxMoEuATwL8ZFRLIoYJWHJM5Zn118mQKrKz8XNb
NXaw7TXZnFu8wjGAfGekojlYyfa6v0kd5PqKF+L3xXT4DIgUPtBiEtuLv4p8yr26
cu0TRmCW0dkyQxlBBt49T0tCTcGDDCOA5Vqa2E1pKbEljUmJ+shg8KDaBEl6GTW+
XKZcduGjuzuUTc4pc23UDIqB0K1/xebk4ijarGdeDko8wxpdjbbpd6OhB6Le0yBg
fCSJpoUxPH+j1Z33NEU/eRgTroIZ8fdH7a3w1BZbnU8LRPFxsGcaBL2AwZ0W76pD
9NHtUdQ21YF1GDRAw3Ugd5/Ix822ifaPx6rAiWmO1o3IfN3L0wp5SIwB8mqMIQ7h
/q2LVpgRPAHA+87beGEM3PuinsAQTnlRQX9BSW3umMClSnlsOYsu00rpsIQnjDxY
ZD/bnbl5RX3cAoeAkjrHfzqk2sGj0h3PAzjPNUGNW9ai/lbkggtHmcXjw7Oxzsx+
kI3Fm+CPD5EIp+nRb00St2U6sqwPlz+mP+rmYw6C7BV7z3xx58YSsc1kj37dyFeQ
16lhOpSqc4aPTyp0AqtdNef7x0CVQLpbj/z/pTVwkq1GFQIDAQABo4HgMIHdMB0G
A1UdDgQWBBR1AQhKOBqocYg0cEcGrJIVB+jj0jCBrQYDVR0jBIGlMIGigBQu55i1
H6SV2ke5/iUJ+Nh6tezhFqF/pH0wezELMAkGA1UEBhMCVVMxCzAJBgNVBAgTAk1E
MRYwFAYDVQQKEw1XaWRnZXRzLCBJbmMuMQswCQYDVQQLEwJJVDEZMBcGA1UEAxMQ
Y2ExMC5kZWV6dGVrLmNvbTEfMB0GCSqGSIb3DQEJARYQY2ExMEBkZWV6dGVrLmNv
bYIJAPWre29kipOcMAwGA1UdEwQFMAMBAf8wDQYJKoZIhvcNAQEFBQADggIBADF6
WRqnmv6/0PWxjMuWzhMWJ6mEbHrY8olDZNQ8bqbck//wDhLThyU017ozEUEpFMuT
iu0ZAF/P/XzerYazmSBfZu+ntNSInNtc3DnrOLQyGSBun9u7e6mtTXE8gNeH1dwZ
nkXL5HrJsBbKu5GdsKBwHYbQgVu2zc59No5aiF+ImEsQODV6P6Y7nrMMVwL5lQWp
a/SNe4BC9quonzlEV4B7Dg7/2jVnHo2w0159BexYEaiZ7i2dflgCJMcX6Apnt5J5
PX6OKfzjJ2mWvcE3slQS1Jw0E6d8d9dX+uKFWFHYIVgadzmWJFJlbhd2FFDFRdYK
2yWhjL6kLV75NgdRY4z0sxDEI562G7qsSt10ztaPd7HYhzJBbFADiCV9IyWrIR7W
tk6Y3GG687JaMsvjY7e0AVR9lHKNIFWve+qVFmRrvfx4P9ja+ydDSAszKklc109O
frk+jSPowQweYbAvU4hhqpgDQloAFhJEApPxFXieoG1Kw5fbk0YwQ/2mR/kxgNXa
qvjgFGZx3Brf71C4simgaNrCM1/cbZwlE2EOhGO4Ns0g0HVLkZj7LQ692dcs9MQ9
cC/gjiegYl0o3VEZL1BpUGvxitP5wrk/N3sYfbXkXLEv8lZLZOXTP/ka/S2gmmau
FG2Sj+6RGBHp5hzeB0/9k/0hYd4L1KDL11V79mip
-----END CERTIFICATE-----
